; Function Attrs: mustprogress uwtable
define hidden noundef zeroext i1 @_ZN6google8protobuf10TextFormat18PrintUnknownFieldsERKNS0_15UnknownFieldSetEPNS0_2io20ZeroCopyOutputStreamE(ptr noundef nonnull readonly align 8 captures(none) dereferenceable(24) %0, ptr noundef %1) local_unnamed_addr #3 align 2 personality ptr @__gxx_personality_v0 {
  %3 = alloca %"class.google::protobuf::TextFormat::Printer::TextGenerator", align 8
  %4 = alloca %"class.google::protobuf::TextFormat::Printer", align 8
  call void @llvm.lifetime.start.p0(i64 136, ptr nonnull %4) #31
  %5 = getelementptr inbounds nuw i8, ptr %4, i64 16
  %6 = getelementptr inbounds nuw i8, ptr %4, i64 24
  %7 = getelementptr inbounds nuw i8, ptr %4, i64 40
  store i32 0, ptr %7, align 8, !tbaa !13
  %8 = getelementptr inbounds nuw i8, ptr %4, i64 48
  store ptr null, ptr %8, align 8, !tbaa !18
  %9 = getelementptr inbounds nuw i8, ptr %4, i64 56
  call void @llvm.memset.p0.i64(ptr noundef nonnull align 8 dereferenceable(136) %4, i8 0, i64 11, i1 false)
  call void @llvm.memset.p0.i64(ptr noundef nonnull align 8 dereferenceable(16) %5, i8 0, i64 16, i1 false)
  store ptr %7, ptr %9, align 8, !tbaa !19
  %10 = getelementptr inbounds nuw i8, ptr %4, i64 64
  store ptr %7, ptr %10, align 8, !tbaa !20
  %11 = getelementptr inbounds nuw i8, ptr %4, i64 72
  store i64 0, ptr %11, align 8, !tbaa !21
  %12 = getelementptr inbounds nuw i8, ptr %4, i64 88
  store i32 0, ptr %12, align 8, !tbaa !13
  %13 = getelementptr inbounds nuw i8, ptr %4, i64 96
  store ptr null, ptr %13, align 8, !tbaa !18
  %14 = getelementptr inbounds nuw i8, ptr %4, i64 104
  store ptr %12, ptr %14, align 8, !tbaa !19
  %15 = getelementptr inbounds nuw i8, ptr %4, i64 112
  store ptr %12, ptr %15, align 8, !tbaa !20
  %16 = getelementptr inbounds nuw i8, ptr %4, i64 120
  call void @llvm.memset.p0.i64(ptr noundef nonnull align 8 dereferenceable(16) %16, i8 0, i64 16, i1 false)
  %17 = invoke noalias noundef nonnull dereferenceable(8) ptr @_Znwm(i64 noundef 8) #32
          to label %_ZN6google8protobuf10TextFormat7PrinterC2Ev.exit unwind label %18

18:                                               ; preds = %2
  %19 = landingpad { ptr, i32 }
          cleanup
  %20 = getelementptr inbounds nuw i8, ptr %4, i64 80
  %21 = getelementptr inbounds nuw i8, ptr %4, i64 32
  call void @_ZNSt3mapIPKN6google8protobuf10DescriptorESt10unique_ptrIKNS1_10TextFormat14MessagePrinterESt14default_deleteIS8_EESt4lessIS4_ESaISt4pairIKS4_SB_EEED2Ev(ptr noundef nonnull align 8 dereferenceable(48) %20) #31
  call void @_ZNSt3mapIPKN6google8protobuf15FieldDescriptorESt10unique_ptrIKNS1_10TextFormat21FastFieldValuePrinterESt14default_deleteIS8_EESt4lessIS4_ESaISt4pairIKS4_SB_EEED2Ev(ptr noundef nonnull align 8 dereferenceable(48) %21) #31
  %22 = load ptr, ptr %6, align 8, !tbaa !22
  %.not.i.i = icmp eq ptr %22, null
  br i1 %.not.i.i, label %common.resume, label %_ZNKSt14default_deleteIKN6google8protobuf10TextFormat21FastFieldValuePrinterEEclEPS4_.exit.i.i

_ZNKSt14default_deleteIKN6google8protobuf10TextFormat21FastFieldValuePrinterEEclEPS4_.exit.i.i: ; preds = %18
  %23 = load ptr, ptr %22, align 8, !tbaa !24
  %24 = getelementptr inbounds nuw i8, ptr %23, i64 8
  %25 = load ptr, ptr %24, align 8
  call void %25(ptr noundef nonnull align 8 dereferenceable(8) %22) #31
  br label %common.resume

common.resume:                                    ; preds = %18, %_ZNKSt14default_deleteIKN6google8protobuf10TextFormat21FastFieldValuePrinterEEclEPS4_.exit.i.i, %.body
  %common.resume.op = phi { ptr, i32 } [ %48, %.body ], [ %19, %_ZNKSt14default_deleteIKN6google8protobuf10TextFormat21FastFieldValuePrinterEEclEPS4_.exit.i.i ], [ %19, %18 ]
  resume { ptr, i32 } %common.resume.op

_ZN6google8protobuf10TextFormat7PrinterC2Ev.exit: ; preds = %2
  store ptr getelementptr inbounds nuw inrange(-16, 136) (i8, ptr @_ZTVN6google8protobuf10TextFormat7Printer28DebugStringFieldValuePrinterE, i64 16), ptr %17, align 8, !tbaa !24
  store ptr %17, ptr %6, align 8, !tbaa !22
  call void @llvm.lifetime.start.p0(i64 40, ptr nonnull %3) #31
  store ptr getelementptr inbounds nuw inrange(-16, 48) (i8, ptr @_ZTVN6google8protobuf10TextFormat7Printer13TextGeneratorE, i64 16), ptr %3, align 8, !tbaa !24
  %26 = getelementptr inbounds nuw i8, ptr %3, i64 8
  store ptr %1, ptr %26, align 8, !tbaa !52
  %27 = getelementptr inbounds nuw i8, ptr %3, i64 16
  store ptr null, ptr %27, align 8, !tbaa !56
  %28 = getelementptr inbounds nuw i8, ptr %3, i64 24
  store i32 0, ptr %28, align 8, !tbaa !57
  %29 = getelementptr inbounds nuw i8, ptr %3, i64 28
  store i8 1, ptr %29, align 4, !tbaa !58
  %30 = getelementptr inbounds nuw i8, ptr %3, i64 29
  store i8 0, ptr %30, align 1, !tbaa !59
  %31 = getelementptr inbounds nuw i8, ptr %3, i64 30
  store i8 0, ptr %31, align 2, !tbaa !60
  %32 = getelementptr inbounds nuw i8, ptr %3, i64 32
  store i32 0, ptr %32, align 8, !tbaa !61
  %33 = getelementptr inbounds nuw i8, ptr %3, i64 36
  store i32 0, ptr %33, align 4, !tbaa !62
  invoke void @_ZNK6google8protobuf10TextFormat7Printer18PrintUnknownFieldsERKNS0_15UnknownFieldSetEPNS2_13TextGeneratorEi(ptr noundef nonnull align 8 dereferenceable(136) %4, ptr noundef nonnull readonly align 8 dereferenceable(24) %0, ptr noundef nonnull %3, i32 noundef 10)
          to label %34 unwind label %.body

34:                                               ; preds = %_ZN6google8protobuf10TextFormat7PrinterC2Ev.exit
  %35 = load i8, ptr %30, align 1, !tbaa !59, !range !49, !noundef !50
  %36 = trunc nuw i8 %35 to i1
  store ptr getelementptr inbounds nuw inrange(-16, 48) (i8, ptr @_ZTVN6google8protobuf10TextFormat7Printer13TextGeneratorE, i64 16), ptr %3, align 8, !tbaa !24
  br i1 %36, label %49, label %37

37:                                               ; preds = %34
  %38 = load i32, ptr %28, align 8, !tbaa !57
  %39 = icmp sgt i32 %38, 0
  br i1 %39, label %40, label %49

40:                                               ; preds = %37
  %41 = load ptr, ptr %26, align 8, !tbaa !52
  %42 = load ptr, ptr %41, align 8, !tbaa !24
  %43 = getelementptr inbounds nuw i8, ptr %42, i64 24
  %44 = load ptr, ptr %43, align 8
  invoke void %44(ptr noundef nonnull align 8 dereferenceable(8) %41, i32 noundef %38)
          to label %49 unwind label %45

45:                                               ; preds = %40
  %46 = landingpad { ptr, i32 }
          catch ptr null
  %47 = extractvalue { ptr, i32 } %46, 0
  call void @__clang_call_terminate(ptr %47) #33
  unreachable

.body:                                            ; preds = %_ZN6google8protobuf10TextFormat7PrinterC2Ev.exit
  %48 = landingpad { ptr, i32 }
          cleanup
  call void @_ZN6google8protobuf10TextFormat7Printer13TextGeneratorD2Ev(ptr noundef nonnull align 8 dereferenceable(40) %3) #31
  call void @llvm.lifetime.end.p0(i64 40, ptr nonnull %3) #31
  call void @_ZN6google8protobuf10TextFormat7PrinterD2Ev(ptr noundef nonnull align 8 dereferenceable(136) %4) #31
  call void @llvm.lifetime.end.p0(i64 136, ptr nonnull %4) #31
  br label %common.resume

49:                                               ; preds = %40, %37, %34
  call void @llvm.lifetime.end.p0(i64 40, ptr nonnull %3) #31
  %50 = getelementptr inbounds nuw i8, ptr %4, i64 80
  %51 = load ptr, ptr %13, align 8, !tbaa !18
  invoke void @_ZNSt8_Rb_treeIPKN6google8protobuf10DescriptorESt4pairIKS4_St10unique_ptrIKNS1_10TextFormat14MessagePrinterESt14default_deleteISA_EEESt10_Select1stISE_ESt4lessIS4_ESaISE_EE8_M_eraseEPSt13_Rb_tree_nodeISE_E(ptr noundef nonnull align 8 dereferenceable(48) %50, ptr noundef %51)
          to label %_ZNSt3mapIPKN6google8protobuf10DescriptorESt10unique_ptrIKNS1_10TextFormat14MessagePrinterESt14default_deleteIS8_EESt4lessIS4_ESaISt4pairIKS4_SB_EEED2Ev.exit.i unwind label %52

52:                                               ; preds = %49
  %53 = landingpad { ptr, i32 }
          catch ptr null
  %54 = extractvalue { ptr, i32 } %53, 0
  call void @__clang_call_terminate(ptr %54) #33
  unreachable

_ZNSt3mapIPKN6google8protobuf10DescriptorESt10unique_ptrIKNS1_10TextFormat14MessagePrinterESt14default_deleteIS8_EESt4lessIS4_ESaISt4pairIKS4_SB_EEED2Ev.exit.i: ; preds = %49
  %55 = getelementptr inbounds nuw i8, ptr %4, i64 32
  %56 = load ptr, ptr %8, align 8, !tbaa !18
  invoke void @_ZNSt8_Rb_treeIPKN6google8protobuf15FieldDescriptorESt4pairIKS4_St10unique_ptrIKNS1_10TextFormat21FastFieldValuePrinterESt14default_deleteISA_EEESt10_Select1stISE_ESt4lessIS4_ESaISE_EE8_M_eraseEPSt13_Rb_tree_nodeISE_E(ptr noundef nonnull align 8 dereferenceable(48) %55, ptr noundef %56)
          to label %_ZNSt3mapIPKN6google8protobuf15FieldDescriptorESt10unique_ptrIKNS1_10TextFormat21FastFieldValuePrinterESt14default_deleteIS8_EESt4lessIS4_ESaISt4pairIKS4_SB_EEED2Ev.exit.i unwind label %57

57:                                               ; preds = %_ZNSt3mapIPKN6google8protobuf10DescriptorESt10unique_ptrIKNS1_10TextFormat14MessagePrinterESt14default_deleteIS8_EESt4lessIS4_ESaISt4pairIKS4_SB_EEED2Ev.exit.i
  %58 = landingpad { ptr, i32 }
          catch ptr null
  %59 = extractvalue { ptr, i32 } %58, 0
  call void @__clang_call_terminate(ptr %59) #33
  unreachable

_ZNSt3mapIPKN6google8protobuf15FieldDescriptorESt10unique_ptrIKNS1_10TextFormat21FastFieldValuePrinterESt14default_deleteIS8_EESt4lessIS4_ESaISt4pairIKS4_SB_EEED2Ev.exit.i: ; preds = %_ZNSt3mapIPKN6google8protobuf10DescriptorESt10unique_ptrIKNS1_10TextFormat14MessagePrinterESt14default_deleteIS8_EESt4lessIS4_ESaISt4pairIKS4_SB_EEED2Ev.exit.i
  %60 = load ptr, ptr %6, align 8, !tbaa !22
  %.not.i.i3 = icmp eq ptr %60, null
  br i1 %.not.i.i3, label %_ZN6google8protobuf10TextFormat7PrinterD2Ev.exit, label %_ZNKSt14default_deleteIKN6google8protobuf10TextFormat21FastFieldValuePrinterEEclEPS4_.exit.i.i4

_ZNKSt14default_deleteIKN6google8protobuf10TextFormat21FastFieldValuePrinterEEclEPS4_.exit.i.i4: ; preds = %_ZNSt3mapIPKN6google8protobuf15FieldDescriptorESt10unique_ptrIKNS1_10TextFormat21FastFieldValuePrinterESt14default_deleteIS8_EESt4lessIS4_ESaISt4pairIKS4_SB_EEED2Ev.exit.i
  %61 = load ptr, ptr %60, align 8, !tbaa !24
  %62 = getelementptr inbounds nuw i8, ptr %61, i64 8
  %63 = load ptr, ptr %62, align 8
  call void %63(ptr noundef nonnull align 8 dereferenceable(8) %60) #31
  br label %_ZN6google8protobuf10TextFormat7PrinterD2Ev.exit

_ZN6google8protobuf10TextFormat7PrinterD2Ev.exit: ; preds = %_ZNSt3mapIPKN6google8protobuf15FieldDescriptorESt10unique_ptrIKNS1_10TextFormat21FastFieldValuePrinterESt14default_deleteIS8_EESt4lessIS4_ESaISt4pairIKS4_SB_EEED2Ev.exit.i, %_ZNKSt14default_deleteIKN6google8protobuf10TextFormat21FastFieldValuePrinterEEclEPS4_.exit.i.i4
  %64 = xor i1 %36, true
  call void @llvm.lifetime.end.p0(i64 136, ptr nonnull %4) #31
  ret i1 %64
}